target datalayout = "e-m:e-p270:32:32-p271:32:32-p272:64:64-i64:64-i128:128-f80:128-n8:16:32:64-S128"
target triple = "x86_64-pc-linux-gnu"

%"class.std::__cxx11::basic_string" = type { %"struct.std::__cxx11::basic_string<char>::_Alloc_hider", i64, %union.anon }
%"struct.std::__cxx11::basic_string<char>::_Alloc_hider" = type { ptr }
%union.anon = type { i64, [8 x i8] }
%"class.std::allocator.8" = type { i8 }

@__func__._ZN4Copy5Actor3runERN2cv5gimpl17GIslandExecutable6IInputERNS3_7IOutputE = private unnamed_addr constant [4 x i8] c"run\00", align 1
@.str.1 = private unnamed_addr constant [149 x i8] c"generated/home/dtcxzyw/WorkSpace/Projects/compilers/llvm-opt-benchmark/bench/opencv/opencv/modules/gapi/src/backends/streaming/gstreamingbackend.cpp\00", align 1
@.str.36 = private unnamed_addr constant [16 x i8] c"Not implemented\00", align 1

; Function Attrs: mustprogress uwtable
define internal void @_ZN12_GLOBAL__N_126GStreamingIntrinExecutable3runEOSt6vectorISt4pairIN2cv5gimpl6RcDescENS3_7GRunArgEESaIS7_EEOS1_IS2_IS5_NS3_4util7variantIJPNS3_4UMatEPNS3_3MatEPNS3_4RMatEPNS3_7Scalar_IdEEPNS3_10MediaFrameENS3_6detail9VectorRefENSO_9OpaqueRefEEEEESaISS_EE(ptr noundef nonnull align 8 dereferenceable(224) %0, ptr noundef nonnull align 1 %1, ptr noundef nonnull align 1 %2) unnamed_addr #4 align 2 personality ptr @__gxx_personality_v0 {
  %4 = alloca ptr, align 8
  %5 = alloca ptr, align 8
  %6 = alloca ptr, align 8
  %7 = alloca %"class.std::__cxx11::basic_string", align 8
  %8 = alloca %"class.std::allocator.8", align 1
  %9 = alloca ptr, align 8
  %10 = alloca i32, align 4
  store ptr %0, ptr %4, align 8
  store ptr %1, ptr %5, align 8
  store ptr %2, ptr %6, align 8
  call void @_ZNSaIcEC1Ev(ptr noundef nonnull align 1 dereferenceable(1) %8) #3
  invoke void @_ZNSt7__cxx1112basic_stringIcSt11char_traitsIcESaIcEEC1EPKcRKS3_(ptr noundef nonnull align 8 dereferenceable(32) %7, ptr noundef @.str.36, ptr noundef nonnull align 1 dereferenceable(1) %8)
          to label %11 unwind label %13

11:                                               ; preds = %3
  invoke void @_ZN2cv5errorEiRKNSt7__cxx1112basic_stringIcSt11char_traitsIcESaIcEEEPKcS9_i(i32 noundef -2, ptr noundef nonnull align 8 dereferenceable(32) %7, ptr noundef @__func__._ZN4Copy5Actor3runERN2cv5gimpl17GIslandExecutable6IInputERNS3_7IOutputE, ptr noundef @.str.1, i32 noundef 45) #17
          to label %12 unwind label %17

12:                                               ; preds = %11
  unreachable

13:                                               ; preds = %3
  %14 = landingpad { ptr, i32 }
          cleanup
  %15 = extractvalue { ptr, i32 } %14, 0
  store ptr %15, ptr %9, align 8
  %16 = extractvalue { ptr, i32 } %14, 1
  store i32 %16, ptr %10, align 4
  br label %21

17:                                               ; preds = %11
  %18 = landingpad { ptr, i32 }
          cleanup
  %19 = extractvalue { ptr, i32 } %18, 0
  store ptr %19, ptr %9, align 8
  %20 = extractvalue { ptr, i32 } %18, 1
  store i32 %20, ptr %10, align 4
  call void @_ZNSt7__cxx1112basic_stringIcSt11char_traitsIcESaIcEED1Ev(ptr noundef nonnull align 8 dereferenceable(32) %7) #3
  br label %21

21:                                               ; preds = %17, %13
  call void @_ZNSaIcED1Ev(ptr noundef nonnull align 1 dereferenceable(1) %8) #3
  br label %22

22:                                               ; preds = %21
  %23 = load ptr, ptr %9, align 8
  %24 = load i32, ptr %10, align 4
  %25 = insertvalue { ptr, i32 } poison, ptr %23, 0
  %26 = insertvalue { ptr, i32 } %25, i32 %24, 1
  resume { ptr, i32 } %26
}