; Function Attrs: mustprogress noreturn uwtable
define internal void @_ZN12_GLOBAL__N_126GStreamingIntrinExecutable3runEOSt6vectorISt4pairIN2cv5gimpl6RcDescENS3_7GRunArgEESaIS7_EEOS1_IS2_IS5_NS3_4util7variantIJPNS3_4UMatEPNS3_3MatEPNS3_4RMatEPNS3_7Scalar_IdEEPNS3_10MediaFrameENS3_6detail9VectorRefENSO_9OpaqueRefEEEEESaISS_EE(ptr nocapture nonnull readnone align 8 %0, ptr nocapture nonnull readnone align 1 %1, ptr nocapture nonnull readnone align 1 %2) unnamed_addr #7 align 2 personality ptr @__gxx_personality_v0 {
  %4 = alloca %"class.std::__cxx11::basic_string", align 8
  %5 = alloca %"class.std::allocator.8", align 1
  call void @_ZNSaIcEC1Ev(ptr noundef nonnull align 1 dereferenceable(1) %5) #25
  invoke void @_ZNSt7__cxx1112basic_stringIcSt11char_traitsIcESaIcEEC1EPKcRKS3_(ptr noundef nonnull align 8 dereferenceable(32) %4, ptr noundef nonnull @.str.36, ptr noundef nonnull align 1 dereferenceable(1) %5)
          to label %6 unwind label %8

6:                                                ; preds = %3
  invoke void @_ZN2cv5errorEiRKNSt7__cxx1112basic_stringIcSt11char_traitsIcESaIcEEEPKcS9_i(i32 noundef -2, ptr noundef nonnull align 8 dereferenceable(32) %4, ptr noundef nonnull @__func__._ZN4Copy5Actor3runERN2cv5gimpl17GIslandExecutable6IInputERNS3_7IOutputE, ptr noundef nonnull @.str.1, i32 noundef 45) #27
          to label %7 unwind label %10

7:                                                ; preds = %6
  unreachable

8:                                                ; preds = %3
  %9 = landingpad { ptr, i32 }
          cleanup
  br label %12

10:                                               ; preds = %6
  %11 = landingpad { ptr, i32 }
          cleanup
  call void @_ZNSt7__cxx1112basic_stringIcSt11char_traitsIcESaIcEED1Ev(ptr noundef nonnull align 8 dereferenceable(32) %4) #25
  br label %12

12:                                               ; preds = %10, %8
  %.pn = phi { ptr, i32 } [ %11, %10 ], [ %9, %8 ]
  call void @_ZNSaIcED1Ev(ptr noundef nonnull align 1 dereferenceable(1) %5) #25
  resume { ptr, i32 } %.pn
}